#include <math.h>
#include <stdio.h>
#include <stdlib.h>
#include <string.h>

int main()
{
    int m,n,i,j,k,p,max;
    char a[500];
    int b[500]={0};
    scanf("%d\n",&n);
    scanf("%s",a);
    m=strlen(a);
    for(i=0;i<=m-n;i++)
    {
                      for(j=i+1;j<m;j++)
                      {
                                            if(a[i]==a[j])
                                            {
                                                          for(k=1;k<n;k++)
                                                          {
                                                                            if(a[i+k]!=a[j+k])
                                                                            {
                                                                                             p=0;break;
                                                                            }
                                                                            else p=1;
                                                          }
                                                          if(p==1)b[i]=b[i]+1;
                                            }
                      }
    }
        max=0;
        for(i=0;i<=m-n;i++)
        {
                            if(max<b[i])max=b[i];
        }
        if(max==0)printf("NO");
        else
        {
                 printf("%d\n",max+1);
                 for(i=0;i<=m-n;i++)
                 {
                                   if(b[i]==max)
                                   {
                                                for(k=0;k<n;k++)
                                                {
                                                                printf("%c",a[i+k]);
                                                }
                                                printf("\n");
                                   }
                 }
        }
    return 0;
}